target datalayout = "e-m:e-p270:32:32-p271:32:32-p272:64:64-i64:64-i128:128-f80:128-n8:16:32:64-S128"
target triple = "x86_64-pc-linux-gnu"

%struct.expert_field = type { i32, i32 }
%struct.ansi_a_shared_data_t = type { ptr, ptr, ptr, i8, i8, %struct._address, i32, %struct.e_in6_addr, i16, i8 }
%struct._address = type { i32, i32, ptr, ptr }
%struct.e_in6_addr = type { [16 x i8] }

@.str.282 = private unnamed_addr constant [1 x i8] zeroinitializer, align 1
@ei_ansi_a_extraneous_data = internal global %struct.expert_field zeroinitializer, align 4

; Function Attrs: null_pointer_is_valid sspstrong uwtable
define internal void @dtap_auth_resp(ptr noundef %0, ptr noundef %1, ptr noundef %2, i32 noundef %3, i32 noundef %4, ptr noundef %5) #1 {
  %7 = alloca ptr, align 8
  %8 = alloca ptr, align 8
  %9 = alloca ptr, align 8
  %10 = alloca i32, align 4
  %11 = alloca i32, align 4
  %12 = alloca ptr, align 8
  %13 = alloca i32, align 4
  %14 = alloca i32, align 4
  %15 = alloca i32, align 4
  %16 = alloca i32, align 4
  store ptr %0, ptr %7, align 8
  store ptr %1, ptr %8, align 8
  store ptr %2, ptr %9, align 8
  store i32 %3, ptr %10, align 4
  store i32 %4, ptr %11, align 4
  store ptr %5, ptr %12, align 8
  call void @llvm.lifetime.start.p0(i64 4, ptr %13) #8
  call void @llvm.lifetime.start.p0(i64 4, ptr %14) #8
  call void @llvm.lifetime.start.p0(i64 4, ptr %15) #8
  %17 = load i32, ptr %10, align 4
  store i32 %17, ptr %13, align 4
  %18 = load i32, ptr %11, align 4
  store i32 %18, ptr %15, align 4
  %19 = load ptr, ptr %12, align 8
  %20 = getelementptr inbounds nuw %struct.ansi_a_shared_data_t, ptr %19, i32 0, i32 4
  %21 = load i8, ptr %20, align 1, !range !18, !noundef !19
  %22 = trunc i8 %21 to i1
  br i1 %22, label %23, label %32

23:                                               ; preds = %6
  %24 = load ptr, ptr %7, align 8
  %25 = load ptr, ptr %8, align 8
  %26 = load ptr, ptr %9, align 8
  %27 = load i32, ptr %13, align 4
  %28 = load i32, ptr %15, align 4
  %29 = load ptr, ptr %12, align 8
  %30 = call zeroext i16 @elem_tlv(ptr noundef %24, ptr noundef %25, ptr noundef %26, i32 noundef 10, i32 noundef %27, i32 noundef %28, ptr noundef @.str.282, ptr noundef %29)
  %31 = zext i16 %30 to i32
  br label %41

32:                                               ; preds = %6
  %33 = load ptr, ptr %7, align 8
  %34 = load ptr, ptr %8, align 8
  %35 = load ptr, ptr %9, align 8
  %36 = load i32, ptr %13, align 4
  %37 = load i32, ptr %15, align 4
  %38 = load ptr, ptr %12, align 8
  %39 = call zeroext i16 @elem_lv(ptr noundef %33, ptr noundef %34, ptr noundef %35, i32 noundef 10, i32 noundef %36, i32 noundef %37, ptr noundef @.str.282, ptr noundef %38)
  %40 = zext i16 %39 to i32
  br label %41

41:                                               ; preds = %32, %23
  %42 = phi i32 [ %31, %23 ], [ %40, %32 ]
  store i32 %42, ptr %14, align 4
  %43 = icmp ugt i32 %42, 0
  br i1 %43, label %44, label %51

44:                                               ; preds = %41
  %45 = load i32, ptr %14, align 4
  %46 = load i32, ptr %13, align 4
  %47 = add i32 %46, %45
  store i32 %47, ptr %13, align 4
  %48 = load i32, ptr %14, align 4
  %49 = load i32, ptr %15, align 4
  %50 = sub i32 %49, %48
  store i32 %50, ptr %15, align 4
  br label %52

51:                                               ; preds = %41
  br label %52

52:                                               ; preds = %51, %44
  %53 = load i32, ptr %15, align 4
  %54 = icmp ule i32 %53, 0
  br i1 %54, label %55, label %56

55:                                               ; preds = %52
  store i32 1, ptr %16, align 4
  br label %72

56:                                               ; preds = %52
  %57 = load i32, ptr %15, align 4
  %58 = icmp ugt i32 %57, 0
  br i1 %58, label %59, label %71

59:                                               ; preds = %56
  %60 = load ptr, ptr %9, align 8
  %61 = load ptr, ptr %8, align 8
  %62 = load ptr, ptr %7, align 8
  %63 = load i32, ptr %13, align 4
  %64 = load i32, ptr %15, align 4
  %65 = sub i32 %64, 0
  %66 = call ptr @proto_tree_add_expert(ptr noundef %60, ptr noundef %61, ptr noundef @ei_ansi_a_extraneous_data, ptr noundef %62, i32 noundef %63, i32 noundef %65)
  %67 = load i32, ptr %15, align 4
  %68 = sub i32 %67, 0
  %69 = load i32, ptr %13, align 4
  %70 = add i32 %69, %68
  store i32 %70, ptr %13, align 4
  br label %71

71:                                               ; preds = %59, %56
  store i32 0, ptr %16, align 4
  br label %72

72:                                               ; preds = %71, %55
  call void @llvm.lifetime.end.p0(i64 4, ptr %15) #8
  call void @llvm.lifetime.end.p0(i64 4, ptr %14) #8
  call void @llvm.lifetime.end.p0(i64 4, ptr %13) #8
  %73 = load i32, ptr %16, align 4
  switch i32 %73, label %75 [
    i32 0, label %74
    i32 1, label %74
  ]

74:                                               ; preds = %72, %72
  ret void

75:                                               ; preds = %72
  unreachable
}